; Function Attrs: mustprogress uwtable
define hidden noundef zeroext i1 @_ZN7datalog30finite_product_relation_plugin20can_handle_signatureERKNS_18relation_signatureE(ptr nocapture noundef nonnull readonly align 8 dereferenceable(112) %this, ptr nocapture noundef nonnull readonly align 8 dereferenceable(8) %s) unnamed_addr #3 align 2 personality ptr @__gxx_personality_v0 {
invoke.cont:
  %table_sig = alloca %"class.datalog::table_signature", align 8
  %remaining_sig = alloca %"class.datalog::relation_signature", align 8
  store ptr null, ptr %table_sig, align 8
  %m_functional_columns.i = getelementptr inbounds i8, ptr %table_sig, i64 8
  store i32 0, ptr %m_functional_columns.i, align 8
  store ptr null, ptr %remaining_sig, align 8
  invoke void @_ZN7datalog30finite_product_relation_plugin16split_signaturesERKNS_18relation_signatureERNS_15table_signatureERS1_(ptr noundef nonnull align 8 dereferenceable(112) %this, ptr noundef nonnull align 8 dereferenceable(8) %s, ptr noundef nonnull align 8 dereferenceable(12) %table_sig, ptr noundef nonnull align 8 dereferenceable(8) %remaining_sig)
          to label %invoke.cont3 unwind label %lpad2

invoke.cont3:                                     ; preds = %invoke.cont
  %m_inner_plugin = getelementptr inbounds i8, ptr %this, i64 40
  %0 = load ptr, ptr %m_inner_plugin, align 8
  %vtable = load ptr, ptr %0, align 8
  %vfn = getelementptr inbounds i8, ptr %vtable, i64 24
  %1 = load ptr, ptr %vfn, align 8
  %call = invoke noundef zeroext i1 %1(ptr noundef nonnull align 8 dereferenceable(32) %0, ptr noundef nonnull align 8 dereferenceable(8) %remaining_sig)
          to label %invoke.cont4 unwind label %lpad2

invoke.cont4:                                     ; preds = %invoke.cont3
  br i1 %call, label %land.rhs, label %land.end

land.rhs:                                         ; preds = %invoke.cont4
  %m_manager.i = getelementptr inbounds i8, ptr %this, i64 24
  %2 = load ptr, ptr %m_manager.i, align 8
  %call8 = invoke noundef ptr @_ZN7datalog16relation_manager26try_get_appropriate_pluginERKNS_15table_signatureE(ptr noundef nonnull align 8 dereferenceable(200) %2, ptr noundef nonnull align 8 dereferenceable(12) %table_sig)
          to label %invoke.cont7 unwind label %lpad2

invoke.cont7:                                     ; preds = %land.rhs
  %tobool = icmp ne ptr %call8, null
  br label %land.end

land.end:                                         ; preds = %invoke.cont7, %invoke.cont4
  %3 = phi i1 [ false, %invoke.cont4 ], [ %tobool, %invoke.cont7 ]
  %4 = load ptr, ptr %remaining_sig, align 8
  %tobool.not.i.i.i.i.i = icmp eq ptr %4, null
  br i1 %tobool.not.i.i.i.i.i, label %_ZN7datalog18relation_signatureD2Ev.exit, label %if.then.i.i.i.i.i

if.then.i.i.i.i.i:                                ; preds = %land.end
  %add.ptr.i.i.i.i.i.i = getelementptr inbounds i8, ptr %4, i64 -8
  invoke void @_ZN6memory10deallocateEPv(ptr noundef nonnull %add.ptr.i.i.i.i.i.i)
          to label %_ZN7datalog18relation_signatureD2Ev.exit unwind label %terminate.lpad.i.i.i.i

terminate.lpad.i.i.i.i:                           ; preds = %if.then.i.i.i.i.i
  %5 = landingpad { ptr, i32 }
          catch ptr null
  %6 = extractvalue { ptr, i32 } %5, 0
  call void @__clang_call_terminate(ptr %6) #22
  unreachable

_ZN7datalog18relation_signatureD2Ev.exit:         ; preds = %land.end, %if.then.i.i.i.i.i
  %7 = load ptr, ptr %table_sig, align 8
  %tobool.not.i.i.i.i.i2 = icmp eq ptr %7, null
  br i1 %tobool.not.i.i.i.i.i2, label %_ZN7datalog15table_signatureD2Ev.exit, label %if.then.i.i.i.i.i3

if.then.i.i.i.i.i3:                               ; preds = %_ZN7datalog18relation_signatureD2Ev.exit
  %add.ptr.i.i.i.i.i.i4 = getelementptr inbounds i8, ptr %7, i64 -8
  invoke void @_ZN6memory10deallocateEPv(ptr noundef nonnull %add.ptr.i.i.i.i.i.i4)
          to label %_ZN7datalog15table_signatureD2Ev.exit unwind label %terminate.lpad.i.i.i.i5

terminate.lpad.i.i.i.i5:                          ; preds = %if.then.i.i.i.i.i3
  %8 = landingpad { ptr, i32 }
          catch ptr null
  %9 = extractvalue { ptr, i32 } %8, 0
  call void @__clang_call_terminate(ptr %9) #22
  unreachable

_ZN7datalog15table_signatureD2Ev.exit:            ; preds = %_ZN7datalog18relation_signatureD2Ev.exit, %if.then.i.i.i.i.i3
  ret i1 %3

lpad2:                                            ; preds = %land.rhs, %invoke.cont3, %invoke.cont
  %10 = landingpad { ptr, i32 }
          cleanup
  call void @_ZN7datalog18relation_signatureD2Ev(ptr noundef nonnull align 8 dereferenceable(8) %remaining_sig) #20
  call void @_ZN7datalog15table_signatureD2Ev(ptr noundef nonnull align 8 dereferenceable(12) %table_sig) #20
  resume { ptr, i32 } %10
}